(dp0
Vteas
p1
(dp2
S'Customer-secret'
p3
S'o4a8EbZVdxhKyWF-8Fcl8u5-eAKv4uPboI-s5f18-OQ'
p4
sS'Login-secret'
p5
S'2UOCtdeD4u7Sos1yg9aNKJDirddx_jtHYwRhtOr31eI'
p6
sS'App-secret'
p7
S'jvcjbJPm9-TUXBRLf3LK6nDgHsiz9xD6yrjJgPYA5Bg'
p8
sS'Accept'
p9
S'application/json'
p10
sS'Client-id'
p11
S'UDbWPMg0eJ8-_RlC5k7Thw'
p12
sS'Content-Type'
p13
g10
ss.