(dp0
Vteas
p1
(dp2
S'Customer-secret'
p3
S'o4a8EbZVdxhKyWF-8Fcl8u5-eAKv4uPboI-s5f18-OQ'
p4
sS'Login-secret'
p5
S'2UOCtdeD4u7Sos1yg9aNKJDirddx_jtHYwRhtOr31eI'
p6
sS'App-secret'
p7
S'jvcjbJPm9-TUXBRLf3LK6nDgHsiz9xD6yrjJgPYA5Bg'
p8
sS'Accept'
p9
S'application/json'
p10
sS'Client-id'
p11
S'UDbWPMg0eJ8-_RlC5k7Thw'
p12
sS'Content-Type'
p13
g10
ssVteafd
p14
(dp15
S'Customer-secret'
p16
S'wUyMSwTx0neNw3nGOu01fhWKWb6Zv4I2_xjzLI0gph0'
p17
sS'Login-secret'
p18
S'aZzcOJuLKuNGSQvB-cY35b2KpH4v7EvlhesOTJaQrL0'
p19
sS'App-secret'
p20
S'jvcjbJPm9-TUXBRLf3LK6nDgHsiz9xD6yrjJgPYA5Bg'
p21
sS'Accept'
p22
S'application/json'
p23
sS'Client-id'
p24
S'UDbWPMg0eJ8-_RlC5k7Thw'
p25
sS'Content-Type'
p26
g23
ss.