(dp0
Vasdasdaasdaasdads
p1
(dp2
S'Customer-secret'
p3
S'YTBry8zc-AC--PmMVd8xkkuDF9jzFbS1_xdxjn5my1w'
p4
sS'Login-secret'
p5
S'ph69kXhRx5f8HaBiWpEuzGAFO3K9lawSzAdHRaHbexo'
p6
sS'App-secret'
p7
S'jvcjbJPm9-TUXBRLf3LK6nDgHsiz9xD6yrjJgPYA5Bg'
p8
sS'Accept'
p9
S'application/json'
p10
sS'Client-id'
p11
S'UDbWPMg0eJ8-_RlC5k7Thw'
p12
sS'Content-Type'
p13
g10
ss.